target datalayout = "e-m:e-p270:32:32-p271:32:32-p272:64:64-i64:64-i128:128-f80:128-n8:16:32:64-S128"
target triple = "x86_64-pc-linux-gnu"

%"class.toku::txnid_set" = type { %"class.toku::omt" }
%"class.toku::omt" = type { i8, i32, %union.anon }
%union.anon = type { %"struct.toku::omt<unsigned long>::omt_array" }
%"struct.toku::omt<unsigned long>::omt_array" = type { i32, i32, ptr }
%"struct.toku::omt<unsigned long>::omt_tree" = type { %"class.toku::omt_internal::subtree_templated", i32, ptr }
%"class.toku::omt_internal::subtree_templated" = type { i32 }

; Function Attrs: mustprogress nounwind uwtable
define linkonce_odr void @_ZN4toku3omtImmLb0EE7copyoutEPmPKm(ptr noundef nonnull %0, ptr noundef nonnull %1) #0 comdat align 2 {
  %3 = alloca ptr, align 8
  %4 = alloca ptr, align 8
  store ptr %0, ptr %3, align 8, !tbaa !4
  store ptr %1, ptr %4, align 8, !tbaa !4
  %5 = load ptr, ptr %4, align 8, !tbaa !4
  %6 = load i64, ptr %5, align 8, !tbaa !9
  %7 = load ptr, ptr %3, align 8, !tbaa !4
  store i64 %6, ptr %7, align 8, !tbaa !9
  ret void
}

; Function Attrs: mustprogress nounwind uwtable
define noundef i32 @_ZN4toku13find_by_txnidERKmS1_(ptr noundef nonnull align 8 dereferenceable(8) %0, ptr noundef nonnull align 8 dereferenceable(8) %1) #0 {
  %3 = alloca i32, align 4
  %4 = alloca ptr, align 8
  %5 = alloca ptr, align 8
  store ptr %0, ptr %4, align 8, !tbaa !4
  store ptr %1, ptr %5, align 8, !tbaa !4
  %6 = load ptr, ptr %4, align 8, !tbaa !4
  %7 = load i64, ptr %6, align 8, !tbaa !9
  %8 = load ptr, ptr %5, align 8, !tbaa !4
  %9 = load i64, ptr %8, align 8, !tbaa !9
  %10 = icmp ult i64 %7, %9
  br i1 %10, label %11, label %12

11:                                               ; preds = %2
  store i32 -1, ptr %3, align 4
  br label %20

12:                                               ; preds = %2
  %13 = load ptr, ptr %4, align 8, !tbaa !4
  %14 = load i64, ptr %13, align 8, !tbaa !9
  %15 = load ptr, ptr %5, align 8, !tbaa !4
  %16 = load i64, ptr %15, align 8, !tbaa !9
  %17 = icmp eq i64 %14, %16
  br i1 %17, label %18, label %19

18:                                               ; preds = %12
  store i32 0, ptr %3, align 4
  br label %20

19:                                               ; preds = %12
  store i32 1, ptr %3, align 4
  br label %20

20:                                               ; preds = %19, %18, %11
  %21 = load i32, ptr %3, align 4
  ret i32 %21
}

; Function Attrs: mustprogress uwtable
define linkonce_odr noundef i32 @_ZNK4toku3omtImmLb0EE24find_internal_zero_arrayImTnPFiRKmRKT_EXadL_ZNS_13find_by_txnidES4_S4_EEEEiS7_PmPj(ptr noundef nonnull align 8 dereferenceable(24) %0, ptr noundef nonnull align 8 dereferenceable(8) %1, ptr noundef %2, ptr noundef %3) #1 comdat align 2 {
  %5 = alloca i32, align 4
  %6 = alloca ptr, align 8
  %7 = alloca ptr, align 8
  %8 = alloca ptr, align 8
  %9 = alloca ptr, align 8
  %10 = alloca i32, align 4
  %11 = alloca i32, align 4
  %12 = alloca i32, align 4
  %13 = alloca i32, align 4
  %14 = alloca i32, align 4
  %15 = alloca i32, align 4
  %16 = alloca i32, align 4
  store ptr %0, ptr %6, align 8, !tbaa !13
  store ptr %1, ptr %7, align 8, !tbaa !4
  store ptr %2, ptr %8, align 8, !tbaa !4
  store ptr %3, ptr %9, align 8, !tbaa !24
  %17 = load ptr, ptr %6, align 8
  call void @llvm.lifetime.start.p0(i64 4, ptr %10) #7
  %18 = getelementptr inbounds nuw %"class.toku::omt", ptr %17, i32 0, i32 2
  %19 = getelementptr inbounds nuw %"struct.toku::omt<unsigned long>::omt_array", ptr %18, i32 0, i32 0
  %20 = load i32, ptr %19, align 8, !tbaa !22
  store i32 %20, ptr %10, align 4, !tbaa !23
  call void @llvm.lifetime.start.p0(i64 4, ptr %11) #7
  %21 = getelementptr inbounds nuw %"class.toku::omt", ptr %17, i32 0, i32 2
  %22 = getelementptr inbounds nuw %"struct.toku::omt<unsigned long>::omt_array", ptr %21, i32 0, i32 0
  %23 = load i32, ptr %22, align 8, !tbaa !22
  %24 = getelementptr inbounds nuw %"class.toku::omt", ptr %17, i32 0, i32 2
  %25 = getelementptr inbounds nuw %"struct.toku::omt<unsigned long>::omt_array", ptr %24, i32 0, i32 1
  %26 = load i32, ptr %25, align 4, !tbaa !22
  %27 = add i32 %23, %26
  store i32 %27, ptr %11, align 4, !tbaa !23
  call void @llvm.lifetime.start.p0(i64 4, ptr %12) #7
  store i32 -1, ptr %12, align 4, !tbaa !23
  call void @llvm.lifetime.start.p0(i64 4, ptr %13) #7
  store i32 -1, ptr %13, align 4, !tbaa !23
  br label %28

28:                                               ; preds = %60, %4
  %29 = load i32, ptr %10, align 4, !tbaa !23
  %30 = load i32, ptr %11, align 4, !tbaa !23
  %31 = icmp ne i32 %29, %30
  br i1 %31, label %32, label %61

32:                                               ; preds = %28
  call void @llvm.lifetime.start.p0(i64 4, ptr %14) #7
  %33 = load i32, ptr %10, align 4, !tbaa !23
  %34 = load i32, ptr %11, align 4, !tbaa !23
  %35 = add i32 %33, %34
  %36 = udiv i32 %35, 2
  store i32 %36, ptr %14, align 4, !tbaa !23
  call void @llvm.lifetime.start.p0(i64 4, ptr %15) #7
  %37 = getelementptr inbounds nuw %"class.toku::omt", ptr %17, i32 0, i32 2
  %38 = getelementptr inbounds nuw %"struct.toku::omt<unsigned long>::omt_array", ptr %37, i32 0, i32 2
  %39 = load ptr, ptr %38, align 8, !tbaa !22
  %40 = load i32, ptr %14, align 4, !tbaa !23
  %41 = zext i32 %40 to i64
  %42 = getelementptr inbounds nuw i64, ptr %39, i64 %41
  %43 = load ptr, ptr %7, align 8, !tbaa !4
  %44 = call noundef i32 @_ZN4toku13find_by_txnidERKmS1_(ptr noundef nonnull align 8 dereferenceable(8) %42, ptr noundef nonnull align 8 dereferenceable(8) %43)
  store i32 %44, ptr %15, align 4, !tbaa !23
  %45 = load i32, ptr %15, align 4, !tbaa !23
  %46 = icmp slt i32 %45, 0
  br i1 %46, label %47, label %50

47:                                               ; preds = %32
  %48 = load i32, ptr %14, align 4, !tbaa !23
  %49 = add i32 %48, 1
  store i32 %49, ptr %10, align 4, !tbaa !23
  br label %60

50:                                               ; preds = %32
  %51 = load i32, ptr %15, align 4, !tbaa !23
  %52 = icmp sgt i32 %51, 0
  br i1 %52, label %53, label %56

53:                                               ; preds = %50
  %54 = load i32, ptr %14, align 4, !tbaa !23
  store i32 %54, ptr %12, align 4, !tbaa !23
  %55 = load i32, ptr %14, align 4, !tbaa !23
  store i32 %55, ptr %11, align 4, !tbaa !23
  br label %59

56:                                               ; preds = %50
  %57 = load i32, ptr %14, align 4, !tbaa !23
  store i32 %57, ptr %13, align 4, !tbaa !23
  %58 = load i32, ptr %14, align 4, !tbaa !23
  store i32 %58, ptr %11, align 4, !tbaa !23
  br label %59

59:                                               ; preds = %56, %53
  br label %60

60:                                               ; preds = %59, %47
  call void @llvm.lifetime.end.p0(i64 4, ptr %15) #7
  call void @llvm.lifetime.end.p0(i64 4, ptr %14) #7
  br label %28, !llvm.loop !30

61:                                               ; preds = %28
  %62 = load i32, ptr %13, align 4, !tbaa !23
  %63 = icmp ne i32 %62, -1
  br i1 %63, label %64, label %82

64:                                               ; preds = %61
  %65 = load ptr, ptr %8, align 8, !tbaa !4
  %66 = icmp ne ptr %65, null
  br i1 %66, label %67, label %75

67:                                               ; preds = %64
  %68 = load ptr, ptr %8, align 8, !tbaa !4
  %69 = getelementptr inbounds nuw %"class.toku::omt", ptr %17, i32 0, i32 2
  %70 = getelementptr inbounds nuw %"struct.toku::omt<unsigned long>::omt_array", ptr %69, i32 0, i32 2
  %71 = load ptr, ptr %70, align 8, !tbaa !22
  %72 = load i32, ptr %13, align 4, !tbaa !23
  %73 = zext i32 %72 to i64
  %74 = getelementptr inbounds nuw i64, ptr %71, i64 %73
  call void @_ZN4toku3omtImmLb0EE7copyoutEPmPKm(ptr noundef %68, ptr noundef %74)
  br label %75

75:                                               ; preds = %67, %64
  %76 = load i32, ptr %13, align 4, !tbaa !23
  %77 = getelementptr inbounds nuw %"class.toku::omt", ptr %17, i32 0, i32 2
  %78 = getelementptr inbounds nuw %"struct.toku::omt<unsigned long>::omt_array", ptr %77, i32 0, i32 0
  %79 = load i32, ptr %78, align 8, !tbaa !22
  %80 = sub i32 %76, %79
  %81 = load ptr, ptr %9, align 8, !tbaa !24
  store i32 %80, ptr %81, align 4, !tbaa !23
  store i32 0, ptr %5, align 4
  store i32 1, ptr %16, align 4
  br label %98

82:                                               ; preds = %61
  %83 = load i32, ptr %12, align 4, !tbaa !23
  %84 = icmp ne i32 %83, -1
  br i1 %84, label %85, label %92

85:                                               ; preds = %82
  %86 = load i32, ptr %12, align 4, !tbaa !23
  %87 = getelementptr inbounds nuw %"class.toku::omt", ptr %17, i32 0, i32 2
  %88 = getelementptr inbounds nuw %"struct.toku::omt<unsigned long>::omt_array", ptr %87, i32 0, i32 0
  %89 = load i32, ptr %88, align 8, !tbaa !22
  %90 = sub i32 %86, %89
  %91 = load ptr, ptr %9, align 8, !tbaa !24
  store i32 %90, ptr %91, align 4, !tbaa !23
  br label %97

92:                                               ; preds = %82
  %93 = getelementptr inbounds nuw %"class.toku::omt", ptr %17, i32 0, i32 2
  %94 = getelementptr inbounds nuw %"struct.toku::omt<unsigned long>::omt_array", ptr %93, i32 0, i32 1
  %95 = load i32, ptr %94, align 4, !tbaa !22
  %96 = load ptr, ptr %9, align 8, !tbaa !24
  store i32 %95, ptr %96, align 4, !tbaa !23
  br label %97

97:                                               ; preds = %92, %85
  store i32 -30989, ptr %5, align 4
  store i32 1, ptr %16, align 4
  br label %98

98:                                               ; preds = %97, %75
  call void @llvm.lifetime.end.p0(i64 4, ptr %13) #7
  call void @llvm.lifetime.end.p0(i64 4, ptr %12) #7
  call void @llvm.lifetime.end.p0(i64 4, ptr %11) #7
  call void @llvm.lifetime.end.p0(i64 4, ptr %10) #7
  %99 = load i32, ptr %5, align 4
  ret i32 %99
}

; Function Attrs: mustprogress uwtable
define linkonce_odr noundef i32 @_ZNK4toku3omtImmLb0EE9find_zeroImTnPFiRKmRKT_EXadL_ZNS_13find_by_txnidES4_S4_EEEEiS7_PmPj(ptr noundef nonnull align 8 dereferenceable(24) %0, ptr noundef nonnull align 8 dereferenceable(8) %1, ptr noundef %2, ptr noundef %3) #1 comdat align 2 {
  %5 = alloca ptr, align 8
  %6 = alloca ptr, align 8
  %7 = alloca ptr, align 8
  %8 = alloca ptr, align 8
  %9 = alloca i32, align 4
  %10 = alloca ptr, align 8
  %11 = alloca i32, align 4
  store ptr %0, ptr %5, align 8, !tbaa !13
  store ptr %1, ptr %6, align 8, !tbaa !4
  store ptr %2, ptr %7, align 8, !tbaa !4
  store ptr %3, ptr %8, align 8, !tbaa !24
  %12 = load ptr, ptr %5, align 8
  call void @llvm.lifetime.start.p0(i64 4, ptr %9) #7
  call void @llvm.lifetime.start.p0(i64 8, ptr %10) #7
  %13 = load ptr, ptr %8, align 8, !tbaa !24
  %14 = icmp ne ptr %13, null
  br i1 %14, label %15, label %17

15:                                               ; preds = %4
  %16 = load ptr, ptr %8, align 8, !tbaa !24
  br label %18

17:                                               ; preds = %4
  br label %18

18:                                               ; preds = %17, %15
  %19 = phi ptr [ %16, %15 ], [ %9, %17 ]
  store ptr %19, ptr %10, align 8, !tbaa !24
  call void @llvm.lifetime.start.p0(i64 4, ptr %11) #7
  %20 = getelementptr inbounds nuw %"class.toku::omt", ptr %12, i32 0, i32 0
  %21 = load i8, ptr %20, align 8, !tbaa !19, !range !20, !noundef !21
  %22 = trunc i8 %21 to i1
  br i1 %22, label %23, label %28

23:                                               ; preds = %18
  %24 = load ptr, ptr %6, align 8, !tbaa !4
  %25 = load ptr, ptr %7, align 8, !tbaa !4
  %26 = load ptr, ptr %10, align 8, !tbaa !24
  %27 = call noundef i32 @_ZNK4toku3omtImmLb0EE24find_internal_zero_arrayImTnPFiRKmRKT_EXadL_ZNS_13find_by_txnidES4_S4_EEEEiS7_PmPj(ptr noundef nonnull align 8 dereferenceable(24) %12, ptr noundef nonnull align 8 dereferenceable(8) %24, ptr noundef %25, ptr noundef %26)
  store i32 %27, ptr %11, align 4, !tbaa !23
  br label %35

28:                                               ; preds = %18
  %29 = getelementptr inbounds nuw %"class.toku::omt", ptr %12, i32 0, i32 2
  %30 = getelementptr inbounds nuw %"struct.toku::omt<unsigned long>::omt_tree", ptr %29, i32 0, i32 0
  %31 = load ptr, ptr %6, align 8, !tbaa !4
  %32 = load ptr, ptr %7, align 8, !tbaa !4
  %33 = load ptr, ptr %10, align 8, !tbaa !24
  %34 = call noundef i32 @_ZNK4toku3omtImmLb0EE18find_internal_zeroImTnPFiRKmRKT_EXadL_ZNS_13find_by_txnidES4_S4_EEEEiRKNS_12omt_internal17subtree_templatedILb0EEES7_PmPj(ptr noundef nonnull align 8 dereferenceable(24) %12, ptr noundef nonnull align 4 dereferenceable(4) %30, ptr noundef nonnull align 8 dereferenceable(8) %31, ptr noundef %32, ptr noundef %33)
  store i32 %34, ptr %11, align 4, !tbaa !23
  br label %35

35:                                               ; preds = %28, %23
  %36 = load i32, ptr %11, align 4, !tbaa !23
  call void @llvm.lifetime.end.p0(i64 4, ptr %11) #7
  call void @llvm.lifetime.end.p0(i64 8, ptr %10) #7
  call void @llvm.lifetime.end.p0(i64 4, ptr %9) #7
  ret i32 %36
}

; Function Attrs: mustprogress uwtable
define noundef zeroext i1 @_ZNK4toku9txnid_set8containsEm(ptr noundef nonnull align 8 dereferenceable(24) %0, i64 noundef %1) #1 align 2 {
  %3 = alloca ptr, align 8
  %4 = alloca i64, align 8
  %5 = alloca i64, align 8
  %6 = alloca i32, align 4
  store ptr %0, ptr %3, align 8, !tbaa !11
  store i64 %1, ptr %4, align 8, !tbaa !9
  %7 = load ptr, ptr %3, align 8
  call void @llvm.lifetime.start.p0(i64 8, ptr %5) #7
  call void @llvm.lifetime.start.p0(i64 4, ptr %6) #7
  %8 = getelementptr inbounds nuw %"class.toku::txnid_set", ptr %7, i32 0, i32 0
  %9 = call noundef i32 @_ZNK4toku3omtImmLb0EE9find_zeroImTnPFiRKmRKT_EXadL_ZNS_13find_by_txnidES4_S4_EEEEiS7_PmPj(ptr noundef nonnull align 8 dereferenceable(24) %8, ptr noundef nonnull align 8 dereferenceable(8) %4, ptr noundef %5, ptr noundef null)
  store i32 %9, ptr %6, align 4, !tbaa !23
  %10 = load i32, ptr %6, align 4, !tbaa !23
  %11 = icmp eq i32 %10, 0
  %12 = select i1 %11, i1 true, i1 false
  call void @llvm.lifetime.end.p0(i64 4, ptr %6) #7
  call void @llvm.lifetime.end.p0(i64 8, ptr %5) #7
  ret i1 %12
}