; Function Attrs: mustprogress uwtable
define noundef zeroext i1 @_ZNK4toku9txnid_set8containsEm(ptr noundef nonnull align 8 dereferenceable(24) %0, i64 noundef %1) local_unnamed_addr #2 align 2 {
  %3 = alloca i32, align 4
  %4 = alloca i64, align 8
  %5 = alloca i64, align 8
  store i64 %1, ptr %4, align 8, !tbaa !4
  call void @llvm.lifetime.start.p0(i64 8, ptr nonnull %5) #9
  call void @llvm.lifetime.start.p0(i64 4, ptr nonnull %3) #9
  %6 = load i8, ptr %0, align 8, !tbaa !8, !range !12, !noundef !13
  %7 = trunc nuw i8 %6 to i1
  %8 = getelementptr inbounds nuw i8, ptr %0, i64 8
  br i1 %7, label %9, label %28

9:                                                ; preds = %2
  %10 = getelementptr inbounds nuw i8, ptr %0, i64 12
  %11 = load i32, ptr %10, align 4, !tbaa !14
  %.not38.i.i = icmp eq i32 %11, 0
  br i1 %.not38.i.i, label %_ZNK4toku3omtImmLb0EE9find_zeroImTnPFiRKmRKT_EXadL_ZNS_13find_by_txnidES4_S4_EEEEiS7_PmPj.exit, label %.lr.ph.i.i

.lr.ph.i.i:                                       ; preds = %9
  %12 = load i32, ptr %8, align 8, !tbaa !14
  %13 = add i32 %11, %12
  %14 = getelementptr inbounds nuw i8, ptr %0, i64 16
  %15 = load ptr, ptr %14, align 8, !tbaa !14
  br label %16

16:                                               ; preds = %27, %.lr.ph.i.i
  %.02442.i.i = phi i32 [ %12, %.lr.ph.i.i ], [ %.1.i.i, %27 ]
  %.02541.i.i = phi i32 [ -1, %.lr.ph.i.i ], [ %.126.i.i, %27 ]
  %.02740.i.i = phi i32 [ -1, %.lr.ph.i.i ], [ %.128.i.i, %27 ]
  %.02939.i.i = phi i32 [ %13, %.lr.ph.i.i ], [ %.130.i.i, %27 ]
  %17 = add i32 %.02939.i.i, %.02442.i.i
  %18 = lshr i32 %17, 1
  %19 = zext nneg i32 %18 to i64
  %20 = getelementptr inbounds nuw i64, ptr %15, i64 %19
  %21 = load i64, ptr %20, align 8, !tbaa !4
  %22 = icmp ult i64 %21, %1
  br i1 %22, label %23, label %25

23:                                               ; preds = %16
  %24 = add nuw i32 %18, 1
  br label %27

25:                                               ; preds = %16
  %.not37.i.i = icmp eq i64 %21, %1
  %.027..i.i = select i1 %.not37.i.i, i32 %.02740.i.i, i32 %18
  %..025.i.i = select i1 %.not37.i.i, i32 %18, i32 %.02541.i.i
  %26 = freeze i32 %.027..i.i
  br label %27

27:                                               ; preds = %25, %23
  %.130.i.i = phi i32 [ %.02939.i.i, %23 ], [ %18, %25 ]
  %.128.i.i = phi i32 [ %.02740.i.i, %23 ], [ %26, %25 ]
  %.126.i.i = phi i32 [ %.02541.i.i, %23 ], [ %..025.i.i, %25 ]
  %.1.i.i = phi i32 [ %24, %23 ], [ %.02442.i.i, %25 ]
  %.not.i.i = icmp eq i32 %.1.i.i, %.130.i.i
  br i1 %.not.i.i, label %._crit_edge.i.i, label %16, !llvm.loop !18

._crit_edge.i.i:                                  ; preds = %27
  %.not33.i.i = icmp eq i32 %.126.i.i, -1
  %spec.select = select i1 %.not33.i.i, i32 -30989, i32 0
  br label %_ZNK4toku3omtImmLb0EE9find_zeroImTnPFiRKmRKT_EXadL_ZNS_13find_by_txnidES4_S4_EEEEiS7_PmPj.exit

28:                                               ; preds = %2
  %29 = call noundef i32 @_ZNK4toku3omtImmLb0EE18find_internal_zeroImTnPFiRKmRKT_EXadL_ZNS_13find_by_txnidES4_S4_EEEEiRKNS_12omt_internal17subtree_templatedILb0EEES7_PmPj(ptr noundef nonnull align 8 dereferenceable(24) %0, ptr noundef nonnull align 4 dereferenceable(4) %8, ptr noundef nonnull align 8 dereferenceable(8) %4, ptr noundef nonnull %5, ptr noundef nonnull %3)
  br label %_ZNK4toku3omtImmLb0EE9find_zeroImTnPFiRKmRKT_EXadL_ZNS_13find_by_txnidES4_S4_EEEEiS7_PmPj.exit

_ZNK4toku3omtImmLb0EE9find_zeroImTnPFiRKmRKT_EXadL_ZNS_13find_by_txnidES4_S4_EEEEiS7_PmPj.exit: ; preds = %._crit_edge.i.i, %9, %28
  %.0.i = phi i32 [ %29, %28 ], [ -30989, %9 ], [ %spec.select, %._crit_edge.i.i ]
  call void @llvm.lifetime.end.p0(i64 4, ptr nonnull %3) #9
  %30 = icmp eq i32 %.0.i, 0
  call void @llvm.lifetime.end.p0(i64 8, ptr nonnull %5) #9
  ret i1 %30
}